; Function Attrs: mustprogress uwtable
define hidden void @_ZN15model_evaluator5resetERK10params_ref(ptr nocapture noundef nonnull readonly align 8 dereferenceable(8) %this, ptr noundef nonnull align 8 dereferenceable(8) %p) local_unnamed_addr #3 align 2 {
entry:
  %0 = load ptr, ptr %this, align 8
  tail call void @_ZN15model_evaluator3imp5resetEv(ptr noundef nonnull align 8 dereferenceable(2336) %0)
  %1 = load ptr, ptr %this, align 8
  %m_cfg.i.i = getelementptr inbounds i8, ptr %1, i64 144
  %2 = load ptr, ptr %m_cfg.i.i, align 8
  tail call void @_ZN3mev13evaluator_cfg11updt_paramsERK10params_ref(ptr noundef nonnull align 8 dereferenceable(1800) %2, ptr noundef nonnull align 8 dereferenceable(8) %p)
  ret void
}